Certificate:
    Data:
        Version: 1 (0x0)
        Serial Number: 0 (0x0)
        Signature Algorithm: sha1WithRSAEncryption
        Issuer: C=CA, ST=Quebec, L=Sherbrooke, O=Universite de Sherbrooke, OU=GEGI, CN=autorite/emailAddress=autorite@gegi
        Validity
            Not Before: Jan 23 20:15:58 2021 GMT
            Not After : Jan 23 20:15:58 2022 GMT
        Subject: C=CA, ST=Quebec, O=Universite de Sherbrooke, OU=GEGI, CN=CoinMiners
        Subject Public Key Info:
            Public Key Algorithm: rsaEncryption
                RSA Public-Key: (2048 bit)
                Modulus:
                    00:ef:85:2b:f1:07:bf:e7:63:e8:72:2c:5e:09:48:
                    b6:f8:db:a1:7b:df:3e:bb:8c:9c:74:64:61:10:7b:
                    5d:3a:28:45:28:f0:66:dd:73:b3:36:d7:bf:2f:43:
                    43:a4:62:c7:a9:66:cc:65:53:15:de:6e:82:38:33:
                    62:e5:9f:60:4c:66:1d:4a:2e:57:75:3f:33:ad:96:
                    33:20:f4:9f:f9:74:cc:b8:ec:92:14:c0:06:22:94:
                    66:b7:73:26:aa:a6:85:41:d0:7d:51:f3:aa:f7:57:
                    0f:05:6d:32:d4:df:03:59:3a:f9:52:72:25:9d:31:
                    43:17:24:62:ce:61:48:09:95:2e:e7:b3:f9:4a:d8:
                    5f:13:55:56:95:6f:1d:a1:96:6e:34:95:cd:fa:67:
                    ff:cd:9e:70:f1:b4:97:03:3e:76:a6:45:18:9c:6d:
                    66:8b:c5:5f:33:6b:3f:88:99:02:ae:0c:08:0c:f6:
                    78:90:e9:c0:1a:a7:d2:99:88:f2:45:ae:80:b6:03:
                    1b:10:da:cb:8e:bf:95:ec:61:6d:89:d3:c9:32:b0:
                    6a:13:f7:97:f8:04:9b:c8:d3:79:fd:aa:c4:c7:72:
                    16:d5:b2:8e:ef:53:9f:3c:94:ff:d2:d5:05:d6:31:
                    e1:d2:b0:54:23:be:40:1f:48:75:b2:92:e8:68:23:
                    97:25
                Exponent: 65537 (0x10001)
    Signature Algorithm: sha1WithRSAEncryption
         67:16:fb:d4:d8:15:6c:bb:02:36:0d:4f:11:ed:8a:90:b9:d9:
         5a:7c:38:22:78:c2:33:a3:f3:ae:cf:a6:3c:8e:b8:38:56:9c:
         e9:29:ad:27:0e:84:79:70:cc:7e:a5:ef:9a:7a:d0:64:50:c4:
         49:0b:f0:f8:70:63:07:9f:60:97:51:4d:d1:d0:f1:fc:82:94:
         a4:1a:a3:79:4c:26:35:d0:cf:d8:b9:4c:5a:27:e7:29:68:5c:
         1d:c5:18:fe:26:e9:7f:a7:c6:9d:63:35:35:31:46:98:f0:9a:
         7d:d9:f1:72:f5:c5:ec:b1:b7:5e:9f:cf:5d:35:11:26:4d:c1:
         ce:67:ba:69:fb:67:2b:54:8d:c0:1c:96:87:2e:11:b8:69:0b:
         10:94:b4:aa:50:26:3b:dd:e1:dc:4d:9b:ed:21:73:43:30:89:
         8b:1c:f3:b3:b4:d2:f3:03:26:5d:0b:be:41:56:54:7f:25:cc:
         d8:53:a3:59:a9:56:d8:f5:77:77:5e:09:a5:e9:d8:59:7b:16:
         6c:49:7a:9b:e5:d2:3e:97:c9:be:0d:8d:b1:fb:02:5c:8c:84:
         80:d8:c0:08:0a:09:fc:6a:fe:16:29:06:a2:cd:de:5b:51:05:
         d7:43:36:a9:d5:e5:39:0e:a3:aa:a8:74:d0:3c:2c:b0:70:6f:
         44:0f:db:b9
-----BEGIN CERTIFICATE-----
MIIDcDCCAlgCAQAwDQYJKoZIhvcNAQEFBQAwgZYxCzAJBgNVBAYTAkNBMQ8wDQYD
VQQIDAZRdWViZWMxEzARBgNVBAcMClNoZXJicm9va2UxITAfBgNVBAoMGFVuaXZl
cnNpdGUgZGUgU2hlcmJyb29rZTENMAsGA1UECwwER0VHSTERMA8GA1UEAwwIYXV0
b3JpdGUxHDAaBgkqhkiG9w0BCQEWDWF1dG9yaXRlQGdlZ2kwHhcNMjEwMTIzMjAx
NTU4WhcNMjIwMTIzMjAxNTU4WjBlMQswCQYDVQQGEwJDQTEPMA0GA1UECAwGUXVl
YmVjMSEwHwYDVQQKDBhVbml2ZXJzaXRlIGRlIFNoZXJicm9va2UxDTALBgNVBAsM
BEdFR0kxEzARBgNVBAMMCkNvaW5NaW5lcnMwggEiMA0GCSqGSIb3DQEBAQUAA4IB
DwAwggEKAoIBAQDvhSvxB7/nY+hyLF4JSLb426F73z67jJx0ZGEQe106KEUo8Gbd
c7M2178vQ0OkYsepZsxlUxXeboI4M2Lln2BMZh1KLld1PzOtljMg9J/5dMy47JIU
wAYilGa3cyaqpoVB0H1R86r3Vw8FbTLU3wNZOvlSciWdMUMXJGLOYUgJlS7ns/lK
2F8TVVaVbx2hlm40lc36Z//NnnDxtJcDPnamRRicbWaLxV8zaz+ImQKuDAgM9niQ
6cAap9KZiPJFroC2AxsQ2suOv5XsYW2J08kysGoT95f4BJvI03n9qsTHchbVso7v
U588lP/S1QXWMeHSsFQjvkAfSHWykuhoI5clAgMBAAEwDQYJKoZIhvcNAQEFBQAD
ggEBAGcW+9TYFWy7AjYNTxHtipC52Vp8OCJ4wjOj867PpjyOuDhWnOkprScOhHlw
zH6l75p60GRQxEkL8PhwYwefYJdRTdHQ8fyClKQao3lMJjXQz9i5TFon5yloXB3F
GP4m6X+nxp1jNTUxRpjwmn3Z8XL1xeyxt16fz101ESZNwc5numn7ZytUjcAclocu
EbhpCxCUtKpQJjvd4dxNm+0hc0MwiYsc87O00vMDJl0LvkFWVH8lzNhTo1mpVtj1
d3deCaXp2Fl7FmxJepvl0j6Xyb4NjbH7AlyMhIDYwAgKCfxq/hYpBqLN3ltRBddD
NqnV5TkOo6qodNA8LLBwb0QP27k=
-----END CERTIFICATE-----
